target datalayout = "e-m:e-p270:32:32-p271:32:32-p272:64:64-i64:64-i128:128-f80:128-n8:16:32:64-S128"
target triple = "x86_64-pc-linux-gnu"

; Function Attrs: mustprogress nounwind uwtable
define hidden void @_ZN6casadi10casadi_addIyEEvxPKT_PS1_(i64 noundef %0, ptr noundef %1, ptr noundef %2) #5 {
  %4 = alloca i64, align 8
  %5 = alloca ptr, align 8
  %6 = alloca ptr, align 8
  %7 = alloca i64, align 8
  %8 = alloca i32, align 4
  store i64 %0, ptr %4, align 8, !tbaa !10
  store ptr %1, ptr %5, align 8, !tbaa !117
  store ptr %2, ptr %6, align 8, !tbaa !117
  call void @llvm.lifetime.start.p0(i64 8, ptr %7) #3
  %9 = load ptr, ptr %5, align 8, !tbaa !117
  %10 = icmp ne ptr %9, null
  br i1 %10, label %11, label %14

11:                                               ; preds = %3
  %12 = load ptr, ptr %6, align 8, !tbaa !117
  %13 = icmp ne ptr %12, null
  br i1 %13, label %15, label %14

14:                                               ; preds = %11, %3
  store i32 1, ptr %8, align 4
  br label %32

15:                                               ; preds = %11
  store i64 0, ptr %7, align 8, !tbaa !10
  br label %16

16:                                               ; preds = %28, %15
  %17 = load i64, ptr %7, align 8, !tbaa !10
  %18 = load i64, ptr %4, align 8, !tbaa !10
  %19 = icmp slt i64 %17, %18
  br i1 %19, label %20, label %31

20:                                               ; preds = %16
  %21 = load ptr, ptr %5, align 8, !tbaa !117
  %22 = getelementptr inbounds nuw i64, ptr %21, i32 1
  store ptr %22, ptr %5, align 8, !tbaa !117
  %23 = load i64, ptr %21, align 8, !tbaa !10
  %24 = load ptr, ptr %6, align 8, !tbaa !117
  %25 = getelementptr inbounds nuw i64, ptr %24, i32 1
  store ptr %25, ptr %6, align 8, !tbaa !117
  %26 = load i64, ptr %24, align 8, !tbaa !10
  %27 = or i64 %26, %23
  store i64 %27, ptr %24, align 8, !tbaa !10
  br label %28

28:                                               ; preds = %20
  %29 = load i64, ptr %7, align 8, !tbaa !10
  %30 = add nsw i64 %29, 1
  store i64 %30, ptr %7, align 8, !tbaa !10
  br label %16, !llvm.loop !142

31:                                               ; preds = %16
  store i32 0, ptr %8, align 4
  br label %32

32:                                               ; preds = %31, %14
  call void @llvm.lifetime.end.p0(i64 8, ptr %7) #3
  %33 = load i32, ptr %8, align 4
  switch i32 %33, label %35 [
    i32 0, label %34
    i32 1, label %34
  ]

34:                                               ; preds = %32, %32
  ret void

35:                                               ; preds = %32
  unreachable
}