; Function Attrs: mustprogress nofree norecurse nosync nounwind memory(argmem: readwrite) uwtable
define hidden void @_ZN6casadi10casadi_addIyEEvxPKT_PS1_(i64 noundef %0, ptr noundef readonly captures(address_is_null) %1, ptr noundef captures(address_is_null) %2) local_unnamed_addr #13 {
  %4 = icmp ne ptr %1, null
  %5 = icmp ne ptr %2, null
  %or.cond = and i1 %4, %5
  %6 = icmp sgt i64 %0, 0
  %or.cond14 = and i1 %or.cond, %6
  br i1 %or.cond14, label %.lr.ph, label %.loopexit

.lr.ph:                                           ; preds = %3, %.lr.ph
  %.013 = phi i64 [ %12, %.lr.ph ], [ 0, %3 ]
  %.0712 = phi ptr [ %9, %.lr.ph ], [ %2, %3 ]
  %.0811 = phi ptr [ %7, %.lr.ph ], [ %1, %3 ]
  %7 = getelementptr inbounds nuw i8, ptr %.0811, i64 8
  %8 = load i64, ptr %.0811, align 8, !tbaa !138
  %9 = getelementptr inbounds nuw i8, ptr %.0712, i64 8
  %10 = load i64, ptr %.0712, align 8, !tbaa !138
  %11 = or i64 %10, %8
  store i64 %11, ptr %.0712, align 8, !tbaa !138
  %12 = add nuw nsw i64 %.013, 1
  %exitcond.not = icmp eq i64 %12, %0
  br i1 %exitcond.not, label %.loopexit, label %.lr.ph, !llvm.loop !168

.loopexit:                                        ; preds = %.lr.ph, %3
  ret void
}